; Function Attrs: mustprogress nounwind uwtable
define void @_ZN4base8internal18WeakReferenceOwnerD2Ev(ptr noundef nonnull align 8 captures(none) dereferenceable(8) %0) unnamed_addr #4 align 2 personality ptr @__gxx_personality_v0 {
  %2 = load ptr, ptr %0, align 8, !tbaa !18
  %.not.i = icmp eq ptr %2, null
  br i1 %.not.i, label %_ZN13scoped_refptrIN4base8internal13WeakReference4FlagEED2Ev.exit, label %3

3:                                                ; preds = %1
  %4 = getelementptr inbounds nuw i8, ptr %2, i64 5
  store i8 0, ptr %4, align 1, !tbaa !3
  store ptr null, ptr %0, align 8, !tbaa !18
  %5 = invoke noundef zeroext i1 @_ZNK4base6subtle24RefCountedThreadSafeBase7ReleaseEv(ptr noundef nonnull align 4 dereferenceable(4) %2)
          to label %.noexc unwind label %13

.noexc:                                           ; preds = %3
  br i1 %5, label %6, label %_ZN4base8internal18WeakReferenceOwner10InvalidateEv.exit

6:                                                ; preds = %.noexc
  tail call void @_ZN4base8internal13WeakReference4FlagD1Ev(ptr noundef nonnull align 4 dereferenceable(6) %2) #12
  tail call void @_ZdlPv(ptr noundef nonnull align 4 dereferenceable(4) %2) #13
  br label %_ZN4base8internal18WeakReferenceOwner10InvalidateEv.exit

_ZN4base8internal18WeakReferenceOwner10InvalidateEv.exit: ; preds = %6, %.noexc
  %.pr = load ptr, ptr %0, align 8, !tbaa !18
  %.not.i1 = icmp eq ptr %.pr, null
  br i1 %.not.i1, label %_ZN13scoped_refptrIN4base8internal13WeakReference4FlagEED2Ev.exit, label %7

7:                                                ; preds = %_ZN4base8internal18WeakReferenceOwner10InvalidateEv.exit
  %8 = invoke noundef zeroext i1 @_ZNK4base6subtle24RefCountedThreadSafeBase7ReleaseEv(ptr noundef nonnull align 4 dereferenceable(4) %.pr)
          to label %.noexc.i unwind label %10

.noexc.i:                                         ; preds = %7
  br i1 %8, label %9, label %_ZN13scoped_refptrIN4base8internal13WeakReference4FlagEED2Ev.exit

9:                                                ; preds = %.noexc.i
  tail call void @_ZN4base8internal13WeakReference4FlagD1Ev(ptr noundef nonnull align 4 dereferenceable(6) %.pr) #12
  tail call void @_ZdlPv(ptr noundef nonnull align 4 dereferenceable(4) %.pr) #13
  br label %_ZN13scoped_refptrIN4base8internal13WeakReference4FlagEED2Ev.exit

10:                                               ; preds = %7
  %11 = landingpad { ptr, i32 }
          catch ptr null
  %12 = extractvalue { ptr, i32 } %11, 0
  tail call void @__clang_call_terminate(ptr %12) #14
  unreachable

_ZN13scoped_refptrIN4base8internal13WeakReference4FlagEED2Ev.exit: ; preds = %1, %_ZN4base8internal18WeakReferenceOwner10InvalidateEv.exit, %.noexc.i, %9
  ret void

13:                                               ; preds = %3
  %14 = landingpad { ptr, i32 }
          catch ptr null
  %15 = extractvalue { ptr, i32 } %14, 0
  tail call void @__clang_call_terminate(ptr %15) #14
  unreachable
}